target datalayout = "e-m:e-p270:32:32-p271:32:32-p272:64:64-i64:64-i128:128-f80:128-n8:16:32:64-S128"
target triple = "x86_64-pc-linux-gnu"

%"class.sls::smt_solver" = type { ptr, %"class.sat::ddfw", ptr, %class.ref_vector, %class.statistics }
%"class.sat::ddfw" = type <{ %"struct.sat::ddfw::config", %class.reslimit, %class.vector.1, %class.svector.2, %class.svector.4, %class.svector.6, %class.svector.6, %class.svector.8, i32, [4 x i8], %class.vector.10, %class.svector.11, %class.svector.11, i32, i32, i32, [4 x i8], %class.indexed_uint_set, %class.indexed_uint_set, %class.random_gen, [4 x i8], i64, i32, i32, i32, i32, i64, i64, i64, i64, i64, i32, i32, %class.u_map, %class.stopwatch, %class.svector.11, i8, [7 x i8], %class.scoped_ptr, %"class.std::function", i32, [4 x i8], %class.tracked_uint_set, %class.svector.11, i8, i8, [6 x i8] }>
%"struct.sat::ddfw::config" = type { i32, i32, i32, i32, i32, i32, double }
%class.reslimit = type { %"struct.std::atomic", i8, i64, i64, %class.svector, %class.ptr_vector }
%"struct.std::atomic" = type { %"struct.std::__atomic_base" }
%"struct.std::__atomic_base" = type { i32 }
%class.svector = type { %class.vector }
%class.vector = type { ptr }
%class.ptr_vector = type { %class.vector.0 }
%class.vector.0 = type { ptr }
%class.vector.1 = type { ptr }
%class.svector.2 = type { %class.vector.3 }
%class.vector.3 = type { ptr }
%class.svector.4 = type { %class.vector.5 }
%class.vector.5 = type { ptr }
%class.svector.6 = type { %class.vector.7 }
%class.vector.7 = type { ptr }
%class.svector.8 = type { %class.vector.9 }
%class.vector.9 = type { ptr }
%class.vector.10 = type { ptr }
%class.indexed_uint_set = type { i32, %class.svector.11, %class.svector.11 }
%class.random_gen = type { i32 }
%class.u_map = type { %class.map }
%class.map = type { %class.table2map }
%class.table2map = type { %class.core_hashtable }
%class.core_hashtable = type <{ ptr, i32, i32, i32, [4 x i8] }>
%class.stopwatch = type <{ %"class.std::chrono::time_point", %"class.std::chrono::duration", i8, [7 x i8] }>
%"class.std::chrono::time_point" = type { %"class.std::chrono::duration" }
%"class.std::chrono::duration" = type { i64 }
%class.scoped_ptr = type { ptr }
%"class.std::function" = type { %"class.std::_Function_base", ptr }
%"class.std::_Function_base" = type { %"union.std::_Any_data", ptr }
%"union.std::_Any_data" = type { %"union.std::_Nocopy_types" }
%"union.std::_Nocopy_types" = type { { i64, i64 } }
%class.tracked_uint_set = type { %class.svector.13, %class.svector.11 }
%class.svector.13 = type { %class.vector.14 }
%class.vector.14 = type { ptr }
%class.svector.11 = type { %class.vector.12 }
%class.vector.12 = type { ptr }
%class.ref_vector = type { %class.ref_vector_core }
%class.ref_vector_core = type { %class.ref_manager_wrapper, %class.ptr_vector.15 }
%class.ref_manager_wrapper = type { ptr }
%class.ptr_vector.15 = type { %class.vector.16 }
%class.vector.16 = type { ptr }
%class.statistics = type { %class.svector.17, %class.svector.19 }
%class.svector.17 = type { %class.vector.18 }
%class.vector.18 = type { ptr }
%class.svector.19 = type { %class.vector.20 }
%class.vector.20 = type { ptr }
%"class.sls::smt_solver::solver_ctx" = type <{ %"class.sat::local_search_plugin", %"class.sls::sat_solver_context", ptr, ptr, %"class.sls::context", i8, i8, [6 x i8], %class.ref, %class.obj_map.48, i8, [7 x i8] }>
%"class.sat::local_search_plugin" = type { ptr }
%"class.sls::sat_solver_context" = type { ptr }
%"class.sls::context" = type <{ ptr, ptr, %class.scoped_ptr_vector, %class.indexed_uint_set, %class.indexed_uint_set, %class.ref_vector, %class.svector.11, %class.params_ref, %class.vector.46, %class.svector.2, %class.svector.2, %class.indexed_uint_set, %class.random_gen, i8, i8, i8, i8, %class.ref_vector, %class.ref_vector, %class.ptr_vector.15, %"struct.sls::context::greater_depth", %"struct.sls::context::less_depth", %class.heap, %class.heap.47, %class.uint_set, %class.ref_vector, %"struct.sls::context::stats", [4 x i8], %class.ref_vector, i8, [7 x i8] }>
%class.scoped_ptr_vector = type { %class.ptr_vector.44 }
%class.ptr_vector.44 = type { %class.vector.45 }
%class.vector.45 = type { ptr }
%class.params_ref = type { ptr }
%class.vector.46 = type { ptr }
%"struct.sls::context::greater_depth" = type { ptr }
%"struct.sls::context::less_depth" = type { ptr }
%class.heap = type { %"struct.sls::context::greater_depth", %class.svector.24, %class.svector.24 }
%class.svector.24 = type { %class.vector.25 }
%class.vector.25 = type { ptr }
%class.heap.47 = type { %"struct.sls::context::less_depth", %class.svector.24, %class.svector.24 }
%class.uint_set = type { %class.svector.11 }
%"struct.sls::context::stats" = type { i32, i32, i32 }
%class.ref = type { ptr }
%class.obj_map.48 = type { %class.core_hashtable.49 }
%class.core_hashtable.49 = type <{ ptr, i32, i32, i32, [4 x i8] }>

; Function Attrs: mustprogress nounwind uwtable
define linkonce_odr hidden noundef i32 @_ZNK6vectorIP4exprLb0EjE4sizeEv(ptr noundef nonnull align 8 dereferenceable(8) %0) #6 comdat align 2 {
  %2 = alloca i32, align 4
  %3 = alloca ptr, align 8
  store ptr %0, ptr %3, align 8, !tbaa !332
  %4 = load ptr, ptr %3, align 8
  %5 = getelementptr inbounds nuw %class.vector.16, ptr %4, i32 0, i32 0
  %6 = load ptr, ptr %5, align 8, !tbaa !341
  %7 = icmp eq ptr %6, null
  br i1 %7, label %8, label %9

8:                                                ; preds = %1
  store i32 0, ptr %2, align 4
  br label %14

9:                                                ; preds = %1
  %10 = getelementptr inbounds nuw %class.vector.16, ptr %4, i32 0, i32 0
  %11 = load ptr, ptr %10, align 8, !tbaa !341
  %12 = getelementptr inbounds i32, ptr %11, i64 -1
  %13 = load i32, ptr %12, align 4, !tbaa !181
  store i32 %13, ptr %2, align 4
  br label %14

14:                                               ; preds = %9, %8
  %15 = load i32, ptr %2, align 4
  ret i32 %15
}

; Function Attrs: mustprogress uwtable
define linkonce_odr hidden void @_ZN3sls7context19add_input_assertionEP4expr(ptr noundef nonnull align 8 dereferenceable(321) %0, ptr noundef %1) #4 comdat align 2 {
  %3 = alloca ptr, align 8
  %4 = alloca ptr, align 8
  store ptr %0, ptr %3, align 8, !tbaa !283
  store ptr %1, ptr %4, align 8, !tbaa !143
  %5 = load ptr, ptr %3, align 8
  %6 = load ptr, ptr %4, align 8, !tbaa !143
  call void @_ZN3sls7context13add_assertionEP4exprb(ptr noundef nonnull align 8 dereferenceable(321) %5, ptr noundef %6, i1 noundef zeroext true)
  ret void
}

; Function Attrs: mustprogress nounwind uwtable
define linkonce_odr hidden noundef i32 @_ZNK15ref_vector_coreI4expr19ref_manager_wrapperIS0_11ast_managerEE4sizeEv(ptr noundef nonnull align 8 dereferenceable(16) %0) #6 comdat align 2 {
  %2 = alloca ptr, align 8
  store ptr %0, ptr %2, align 8, !tbaa !141
  %3 = load ptr, ptr %2, align 8
  %4 = getelementptr inbounds nuw %class.ref_vector_core, ptr %3, i32 0, i32 1
  %5 = call noundef i32 @_ZNK6vectorIP4exprLb0EjE4sizeEv(ptr noundef nonnull align 8 dereferenceable(8) %4)
  ret i32 %5
}

; Function Attrs: mustprogress nounwind uwtable
define linkonce_odr hidden noundef ptr @_ZNK6vectorIP4exprLb0EjE5beginEv(ptr noundef nonnull align 8 dereferenceable(8) %0) #6 comdat align 2 {
  %2 = alloca ptr, align 8
  store ptr %0, ptr %2, align 8, !tbaa !332
  %3 = load ptr, ptr %2, align 8
  %4 = getelementptr inbounds nuw %class.vector.16, ptr %3, i32 0, i32 0
  %5 = load ptr, ptr %4, align 8, !tbaa !341
  ret ptr %5
}

; Function Attrs: mustprogress uwtable
define linkonce_odr hidden void @_ZN3sls10smt_solver10solver_ctx19add_input_assertionEP4expr(ptr noundef nonnull align 8 dereferenceable(401) %0, ptr noundef %1) #4 comdat align 2 {
  %3 = alloca ptr, align 8
  %4 = alloca ptr, align 8
  store ptr %0, ptr %3, align 8, !tbaa !103
  store ptr %1, ptr %4, align 8, !tbaa !143
  %5 = load ptr, ptr %3, align 8
  %6 = getelementptr inbounds nuw %"class.sls::smt_solver::solver_ctx", ptr %5, i32 0, i32 4
  %7 = load ptr, ptr %4, align 8, !tbaa !143
  call void @_ZN3sls7context19add_input_assertionEP4expr(ptr noundef nonnull align 8 dereferenceable(321) %6, ptr noundef %7)
  ret void
}

; Function Attrs: mustprogress uwtable
define linkonce_odr hidden noundef ptr @_ZNK15ref_vector_coreI4expr19ref_manager_wrapperIS0_11ast_managerEE3endEv(ptr noundef nonnull align 8 dereferenceable(16) %0) #4 comdat align 2 {
  %2 = alloca ptr, align 8
  store ptr %0, ptr %2, align 8, !tbaa !141
  %3 = load ptr, ptr %2, align 8
  %4 = call noundef ptr @_ZNK15ref_vector_coreI4expr19ref_manager_wrapperIS0_11ast_managerEE5beginEv(ptr noundef nonnull align 8 dereferenceable(16) %3)
  %5 = call noundef i32 @_ZNK15ref_vector_coreI4expr19ref_manager_wrapperIS0_11ast_managerEE4sizeEv(ptr noundef nonnull align 8 dereferenceable(16) %3)
  %6 = zext i32 %5 to i64
  %7 = getelementptr inbounds nuw ptr, ptr %4, i64 %6
  ret ptr %7
}

; Function Attrs: mustprogress uwtable
define linkonce_odr hidden noundef ptr @_ZNK15ref_vector_coreI4expr19ref_manager_wrapperIS0_11ast_managerEE5beginEv(ptr noundef nonnull align 8 dereferenceable(16) %0) #4 comdat align 2 {
  %2 = alloca ptr, align 8
  store ptr %0, ptr %2, align 8, !tbaa !141
  %3 = load ptr, ptr %2, align 8
  %4 = getelementptr inbounds nuw %class.ref_vector_core, ptr %3, i32 0, i32 1
  %5 = call noundef ptr @_ZNK6vectorIP4exprLb0EjE5beginEv(ptr noundef nonnull align 8 dereferenceable(8) %4)
  ret ptr %5
}

; Function Attrs: mustprogress uwtable
define hidden noundef i32 @_ZN3sls10smt_solver5checkEv(ptr noundef nonnull align 8 dereferenceable(488) %0) #4 align 2 {
  %2 = alloca ptr, align 8
  %3 = alloca ptr, align 8
  %4 = alloca ptr, align 8
  %5 = alloca ptr, align 8
  %6 = alloca ptr, align 8
  store ptr %0, ptr %2, align 8, !tbaa !3
  %7 = load ptr, ptr %2, align 8
  call void @llvm.lifetime.start.p0(i64 8, ptr %3) #3
  %8 = getelementptr inbounds nuw %"class.sls::smt_solver", ptr %7, i32 0, i32 3
  store ptr %8, ptr %3, align 8, !tbaa !137
  call void @llvm.lifetime.start.p0(i64 8, ptr %4) #3
  %9 = load ptr, ptr %3, align 8, !tbaa !137
  %10 = call noundef ptr @_ZNK15ref_vector_coreI4expr19ref_manager_wrapperIS0_11ast_managerEE5beginEv(ptr noundef nonnull align 8 dereferenceable(16) %9)
  store ptr %10, ptr %4, align 8, !tbaa !148
  call void @llvm.lifetime.start.p0(i64 8, ptr %5) #3
  %11 = load ptr, ptr %3, align 8, !tbaa !137
  %12 = call noundef ptr @_ZNK15ref_vector_coreI4expr19ref_manager_wrapperIS0_11ast_managerEE3endEv(ptr noundef nonnull align 8 dereferenceable(16) %11)
  store ptr %12, ptr %5, align 8, !tbaa !148
  br label %13

13:                                               ; preds = %24, %1
  %14 = load ptr, ptr %4, align 8, !tbaa !148
  %15 = load ptr, ptr %5, align 8, !tbaa !148
  %16 = icmp ne ptr %14, %15
  br i1 %16, label %18, label %17

17:                                               ; preds = %13
  call void @llvm.lifetime.end.p0(i64 8, ptr %5) #3
  call void @llvm.lifetime.end.p0(i64 8, ptr %4) #3
  call void @llvm.lifetime.end.p0(i64 8, ptr %3) #3
  br label %27

18:                                               ; preds = %13
  call void @llvm.lifetime.start.p0(i64 8, ptr %6) #3
  %19 = load ptr, ptr %4, align 8, !tbaa !148
  %20 = load ptr, ptr %19, align 8, !tbaa !143
  store ptr %20, ptr %6, align 8, !tbaa !143
  %21 = getelementptr inbounds nuw %"class.sls::smt_solver", ptr %7, i32 0, i32 2
  %22 = load ptr, ptr %21, align 8, !tbaa !12
  %23 = load ptr, ptr %6, align 8, !tbaa !143
  call void @_ZN3sls10smt_solver10solver_ctx19add_input_assertionEP4expr(ptr noundef nonnull align 8 dereferenceable(401) %22, ptr noundef %23)
  call void @llvm.lifetime.end.p0(i64 8, ptr %6) #3
  br label %24

24:                                               ; preds = %18
  %25 = load ptr, ptr %4, align 8, !tbaa !148
  %26 = getelementptr inbounds nuw ptr, ptr %25, i32 1
  store ptr %26, ptr %4, align 8, !tbaa !148
  br label %13

27:                                               ; preds = %17
  %28 = call noundef i32 @_Z19get_verbosity_levelv()
  %29 = icmp uge i32 %28, 10
  br i1 %29, label %30, label %49

30:                                               ; preds = %27
  %31 = call noundef zeroext i1 @_Z11is_threadedv()
  br i1 %31, label %32, label %40

32:                                               ; preds = %30
  call void @_Z12verbose_lockv()
  %33 = getelementptr inbounds nuw %"class.sls::smt_solver", ptr %7, i32 0, i32 2
  %34 = load ptr, ptr %33, align 8, !tbaa !12
  %35 = call noundef nonnull align 8 dereferenceable(8) ptr @_Z14verbose_streamv()
  %36 = load ptr, ptr %34, align 8, !tbaa !104
  %37 = getelementptr inbounds ptr, ptr %36, i64 7
  %38 = load ptr, ptr %37, align 8
  %39 = call noundef nonnull align 8 dereferenceable(8) ptr %38(ptr noundef nonnull align 8 dereferenceable(401) %34, ptr noundef nonnull align 8 dereferenceable(8) %35)
  call void @_Z14verbose_unlockv()
  br label %48

40:                                               ; preds = %30
  %41 = getelementptr inbounds nuw %"class.sls::smt_solver", ptr %7, i32 0, i32 2
  %42 = load ptr, ptr %41, align 8, !tbaa !12
  %43 = call noundef nonnull align 8 dereferenceable(8) ptr @_Z14verbose_streamv()
  %44 = load ptr, ptr %42, align 8, !tbaa !104
  %45 = getelementptr inbounds ptr, ptr %44, i64 7
  %46 = load ptr, ptr %45, align 8
  %47 = call noundef nonnull align 8 dereferenceable(8) ptr %46(ptr noundef nonnull align 8 dereferenceable(401) %42, ptr noundef nonnull align 8 dereferenceable(8) %43)
  br label %48

48:                                               ; preds = %40, %32
  br label %49

49:                                               ; preds = %48, %27
  %50 = getelementptr inbounds nuw %"class.sls::smt_solver", ptr %7, i32 0, i32 1
  %51 = call noundef i32 @_ZN3sat4ddfw5checkEjPKNS_7literalE(ptr noundef nonnull align 8 dereferenceable(434) %50, i32 noundef 0, ptr noundef null)
  ret i32 %51
}