; Function Attrs: mustprogress uwtable
define hidden noundef i32 @_ZN3sls10smt_solver5checkEv(ptr noundef nonnull align 8 dereferenceable(488) %0) local_unnamed_addr #3 align 2 {
  %2 = getelementptr inbounds nuw i8, ptr %0, i64 464
  %3 = load ptr, ptr %2, align 8, !tbaa !150
  %4 = icmp eq ptr %3, null
  br i1 %4, label %._crit_edge, label %_ZNK15ref_vector_coreI4expr19ref_manager_wrapperIS0_11ast_managerEE3endEv.exit

_ZNK15ref_vector_coreI4expr19ref_manager_wrapperIS0_11ast_managerEE3endEv.exit: ; preds = %1
  %5 = getelementptr inbounds i8, ptr %3, i64 -4
  %6 = load i32, ptr %5, align 4, !tbaa !151
  %7 = zext i32 %6 to i64
  %8 = getelementptr inbounds nuw ptr, ptr %3, i64 %7
  %.not8 = icmp eq i32 %6, 0
  br i1 %.not8, label %._crit_edge, label %.lr.ph

.lr.ph:                                           ; preds = %_ZNK15ref_vector_coreI4expr19ref_manager_wrapperIS0_11ast_managerEE3endEv.exit
  %9 = getelementptr inbounds nuw i8, ptr %0, i64 448
  br label %12

._crit_edge:                                      ; preds = %12, %1, %_ZNK15ref_vector_coreI4expr19ref_manager_wrapperIS0_11ast_managerEE3endEv.exit
  %10 = tail call noundef i32 @_Z19get_verbosity_levelv()
  %11 = icmp ugt i32 %10, 9
  br i1 %11, label %17, label %35

12:                                               ; preds = %.lr.ph, %12
  %.09 = phi ptr [ %3, %.lr.ph ], [ %16, %12 ]
  %13 = load ptr, ptr %.09, align 8, !tbaa !152
  %14 = load ptr, ptr %9, align 8, !tbaa !8
  %15 = getelementptr inbounds nuw i8, ptr %14, i64 32
  tail call void @_ZN3sls7context13add_assertionEP4exprb(ptr noundef nonnull align 8 dereferenceable(321) %15, ptr noundef %13, i1 noundef zeroext true)
  %16 = getelementptr inbounds nuw i8, ptr %.09, i64 8
  %.not = icmp eq ptr %16, %8
  br i1 %.not, label %._crit_edge, label %12

17:                                               ; preds = %._crit_edge
  %18 = tail call noundef zeroext i1 @_Z11is_threadedv()
  br i1 %18, label %19, label %27

19:                                               ; preds = %17
  tail call void @_Z12verbose_lockv()
  %20 = getelementptr inbounds nuw i8, ptr %0, i64 448
  %21 = load ptr, ptr %20, align 8, !tbaa !8
  %22 = tail call noundef nonnull align 8 dereferenceable(8) ptr @_Z14verbose_streamv()
  %23 = load ptr, ptr %21, align 8, !tbaa !130
  %24 = getelementptr inbounds nuw i8, ptr %23, i64 56
  %25 = load ptr, ptr %24, align 8
  %26 = tail call noundef nonnull align 8 dereferenceable(8) ptr %25(ptr noundef nonnull align 8 dereferenceable(401) %21, ptr noundef nonnull align 8 dereferenceable(8) %22)
  tail call void @_Z14verbose_unlockv()
  br label %35

27:                                               ; preds = %17
  %28 = getelementptr inbounds nuw i8, ptr %0, i64 448
  %29 = load ptr, ptr %28, align 8, !tbaa !8
  %30 = tail call noundef nonnull align 8 dereferenceable(8) ptr @_Z14verbose_streamv()
  %31 = load ptr, ptr %29, align 8, !tbaa !130
  %32 = getelementptr inbounds nuw i8, ptr %31, i64 56
  %33 = load ptr, ptr %32, align 8
  %34 = tail call noundef nonnull align 8 dereferenceable(8) ptr %33(ptr noundef nonnull align 8 dereferenceable(401) %29, ptr noundef nonnull align 8 dereferenceable(8) %30)
  br label %35

35:                                               ; preds = %19, %27, %._crit_edge
  %36 = getelementptr inbounds nuw i8, ptr %0, i64 8
  %37 = tail call noundef i32 @_ZN3sat4ddfw5checkEjPKNS_7literalE(ptr noundef nonnull align 8 dereferenceable(434) %36, i32 noundef 0, ptr noundef null)
  ret i32 %37
}